target datalayout = "e-m:e-p270:32:32-p271:32:32-p272:64:64-i64:64-i128:128-f80:128-n8:16:32:64-S128"
target triple = "x86_64-pc-linux-gnu"

%"class.icu_77::StringTrieBuilder" = type { %"class.icu_77::UObject", ptr }
%"class.icu_77::UObject" = type { ptr }
%union.UElement = type { ptr }
%struct.UHashElement = type { i32, %union.UElement, %union.UElement }

; Function Attrs: inlinehint mustprogress nounwind uwtable
define internal noundef signext i8 @_ZL9U_FAILURE10UErrorCode(i32 noundef %0) #1 {
  %2 = alloca i32, align 4
  store i32 %0, ptr %2, align 4, !tbaa !19
  %3 = load i32, ptr %2, align 4, !tbaa !19
  %4 = icmp sgt i32 %3, 0
  %5 = zext i1 %4 to i8
  ret i8 %5
}

; Function Attrs: mustprogress uwtable
define noundef ptr @_ZN6icu_7717StringTrieBuilder12registerNodeEPNS0_4NodeER10UErrorCode(ptr noundef nonnull align 8 dereferenceable(16) %0, ptr noundef %1, ptr noundef nonnull align 4 dereferenceable(4) %2) #2 align 2 {
  %4 = alloca ptr, align 8
  %5 = alloca ptr, align 8
  %6 = alloca ptr, align 8
  %7 = alloca ptr, align 8
  %8 = alloca ptr, align 8
  %9 = alloca i32, align 4
  store ptr %0, ptr %5, align 8, !tbaa !3
  store ptr %1, ptr %6, align 8, !tbaa !24
  store ptr %2, ptr %7, align 8, !tbaa !18
  %10 = load ptr, ptr %5, align 8
  %11 = load ptr, ptr %7, align 8, !tbaa !18
  %12 = load i32, ptr %11, align 4, !tbaa !19
  %13 = call noundef signext i8 @_ZL9U_FAILURE10UErrorCode(i32 noundef %12)
  %14 = icmp ne i8 %13, 0
  br i1 %14, label %15, label %23

15:                                               ; preds = %3
  %16 = load ptr, ptr %6, align 8, !tbaa !24
  %17 = icmp eq ptr %16, null
  br i1 %17, label %22, label %18

18:                                               ; preds = %15
  %19 = load ptr, ptr %16, align 8, !tbaa !8
  %20 = getelementptr inbounds ptr, ptr %19, i64 1
  %21 = load ptr, ptr %20, align 8
  call void %21(ptr noundef nonnull align 8 dereferenceable(16) %16) #9
  br label %22

22:                                               ; preds = %18, %15
  store ptr null, ptr %4, align 8
  br label %67

23:                                               ; preds = %3
  %24 = load ptr, ptr %6, align 8, !tbaa !24
  %25 = icmp eq ptr %24, null
  br i1 %25, label %26, label %28

26:                                               ; preds = %23
  %27 = load ptr, ptr %7, align 8, !tbaa !18
  store i32 7, ptr %27, align 4, !tbaa !19
  store ptr null, ptr %4, align 8
  br label %67

28:                                               ; preds = %23
  call void @llvm.lifetime.start.p0(i64 8, ptr %8) #9
  %29 = getelementptr inbounds nuw %"class.icu_77::StringTrieBuilder", ptr %10, i32 0, i32 1
  %30 = load ptr, ptr %29, align 8, !tbaa !10
  %31 = load ptr, ptr %6, align 8, !tbaa !24
  %32 = call ptr @uhash_find_77(ptr noundef %30, ptr noundef %31)
  store ptr %32, ptr %8, align 8, !tbaa !36
  %33 = load ptr, ptr %8, align 8, !tbaa !36
  %34 = icmp ne ptr %33, null
  br i1 %34, label %35, label %46

35:                                               ; preds = %28
  %36 = load ptr, ptr %6, align 8, !tbaa !24
  %37 = icmp eq ptr %36, null
  br i1 %37, label %42, label %38

38:                                               ; preds = %35
  %39 = load ptr, ptr %36, align 8, !tbaa !8
  %40 = getelementptr inbounds ptr, ptr %39, i64 1
  %41 = load ptr, ptr %40, align 8
  call void %41(ptr noundef nonnull align 8 dereferenceable(16) %36) #9
  br label %42

42:                                               ; preds = %38, %35
  %43 = load ptr, ptr %8, align 8, !tbaa !36
  %44 = getelementptr inbounds nuw %struct.UHashElement, ptr %43, i32 0, i32 2
  %45 = load ptr, ptr %44, align 8, !tbaa !21
  store ptr %45, ptr %4, align 8
  store i32 1, ptr %9, align 4
  br label %66

46:                                               ; preds = %28
  %47 = getelementptr inbounds nuw %"class.icu_77::StringTrieBuilder", ptr %10, i32 0, i32 1
  %48 = load ptr, ptr %47, align 8, !tbaa !10
  %49 = load ptr, ptr %6, align 8, !tbaa !24
  %50 = load ptr, ptr %7, align 8, !tbaa !18
  %51 = call i32 @uhash_puti_77(ptr noundef %48, ptr noundef %49, i32 noundef 1, ptr noundef %50)
  %52 = load ptr, ptr %7, align 8, !tbaa !18
  %53 = load i32, ptr %52, align 4, !tbaa !19
  %54 = call noundef signext i8 @_ZL9U_FAILURE10UErrorCode(i32 noundef %53)
  %55 = icmp ne i8 %54, 0
  br i1 %55, label %56, label %64

56:                                               ; preds = %46
  %57 = load ptr, ptr %6, align 8, !tbaa !24
  %58 = icmp eq ptr %57, null
  br i1 %58, label %63, label %59

59:                                               ; preds = %56
  %60 = load ptr, ptr %57, align 8, !tbaa !8
  %61 = getelementptr inbounds ptr, ptr %60, i64 1
  %62 = load ptr, ptr %61, align 8
  call void %62(ptr noundef nonnull align 8 dereferenceable(16) %57) #9
  br label %63

63:                                               ; preds = %59, %56
  store ptr null, ptr %4, align 8
  store i32 1, ptr %9, align 4
  br label %66

64:                                               ; preds = %46
  %65 = load ptr, ptr %6, align 8, !tbaa !24
  store ptr %65, ptr %4, align 8
  store i32 1, ptr %9, align 4
  br label %66

66:                                               ; preds = %64, %63, %42
  call void @llvm.lifetime.end.p0(i64 8, ptr %8) #9
  br label %67

67:                                               ; preds = %66, %26, %22
  %68 = load ptr, ptr %4, align 8
  ret ptr %68
}