; Function Attrs: mustprogress uwtable
define noundef ptr @_ZN6icu_7717StringTrieBuilder12registerNodeEPNS0_4NodeER10UErrorCode(ptr noundef nonnull readonly align 8 captures(none) dereferenceable(16) %0, ptr noundef %1, ptr noundef nonnull align 4 dereferenceable(4) %2) local_unnamed_addr #2 align 2 {
  %4 = load i32, ptr %2, align 4, !tbaa !12
  %5 = icmp slt i32 %4, 1
  %6 = icmp eq ptr %1, null
  br i1 %5, label %12, label %7

7:                                                ; preds = %3
  br i1 %6, label %33, label %8

8:                                                ; preds = %7
  %9 = load ptr, ptr %1, align 8, !tbaa !3
  %10 = getelementptr inbounds nuw i8, ptr %9, i64 8
  %11 = load ptr, ptr %10, align 8
  tail call void %11(ptr noundef nonnull align 8 dereferenceable(16) %1) #16
  br label %33

12:                                               ; preds = %3
  br i1 %6, label %13, label %14

13:                                               ; preds = %12
  store i32 7, ptr %2, align 4, !tbaa !12
  br label %33

14:                                               ; preds = %12
  %15 = getelementptr inbounds nuw i8, ptr %0, i64 8
  %16 = load ptr, ptr %15, align 8, !tbaa !6
  %17 = tail call ptr @uhash_find_77(ptr noundef %16, ptr noundef nonnull %1)
  %.not18 = icmp eq ptr %17, null
  br i1 %.not18, label %24, label %18

18:                                               ; preds = %14
  %19 = load ptr, ptr %1, align 8, !tbaa !3
  %20 = getelementptr inbounds nuw i8, ptr %19, i64 8
  %21 = load ptr, ptr %20, align 8
  tail call void %21(ptr noundef nonnull align 8 dereferenceable(16) %1) #16
  %22 = getelementptr inbounds nuw i8, ptr %17, i64 16
  %23 = load ptr, ptr %22, align 8, !tbaa !19
  br label %33

24:                                               ; preds = %14
  %25 = load ptr, ptr %15, align 8, !tbaa !6
  %26 = tail call i32 @uhash_puti_77(ptr noundef %25, ptr noundef nonnull %1, i32 noundef 1, ptr noundef nonnull %2)
  %27 = load i32, ptr %2, align 4, !tbaa !12
  %28 = icmp slt i32 %27, 1
  br i1 %28, label %33, label %29

29:                                               ; preds = %24
  %30 = load ptr, ptr %1, align 8, !tbaa !3
  %31 = getelementptr inbounds nuw i8, ptr %30, i64 8
  %32 = load ptr, ptr %31, align 8
  tail call void %32(ptr noundef nonnull align 8 dereferenceable(16) %1) #16
  br label %33

33:                                               ; preds = %18, %29, %24, %7, %8, %13
  %.0 = phi ptr [ null, %13 ], [ null, %8 ], [ null, %7 ], [ %23, %18 ], [ null, %29 ], [ %1, %24 ]
  ret ptr %.0
}